(dp0
S'lessons'
p1
(lp2
(ilib.Lessons_model
lesson_Model
p3
(dp4
S'Lname'
p5
S'\xe7\x94\x9f\xe7\x89\xa9\xe5\xad\xa6'
p6
sS'difficulty'
p7
I19
sS'Lcost'
p8
S'7'
p9
sS'Tobj'
p10
(ilib.Teachers_model
teacher_Model
p11
(dp12
S'Age'
p13
S'32'
p14
sS'_teacher_Model__Calary'
p15
I259
sS'Name'
p16
S'\xe9\x99\x88\xe8\xbe\x83\xe5\x88\x9a'
p17
sS'Sex'
p18
S'\xe7\x94\xb7'
p19
sbsba(ilib.Lessons_model
lesson_Model
p20
(dp21
g5
S'\xe5\x8c\x96\xe5\xad\xa6'
p22
sg7
I29
sg8
S'7'
p23
sg10
(ilib.Teachers_model
teacher_Model
p24
(dp25
g13
S'26'
p26
sg15
I72
sg16
S'DMM'
p27
sg18
S'\xe7\x94\xb7'
p28
sbsba(ilib.Lessons_model
lesson_Model
p29
(dp30
g5
S'\xe4\xba\x91\xe8\xae\xa1\xe7\xae\x97'
p31
sg7
I33
sg8
S'10'
p32
sg10
(ilib.Teachers_model
teacher_Model
p33
(dp34
g13
S'32'
p35
sg15
I110
sg16
S'\xe9\x99\x88\xe6\x80\x9d\xe9\xbd\x90'
p36
sg18
S'\xe7\x94\xb7'
p37
sbsba(ilib.Lessons_model
lesson_Model
p38
(dp39
g5
S'Python'
p40
sg7
I28
sg8
S'10'
p41
sg10
(ilib.Teachers_model
teacher_Model
p42
(dp43
g13
S'32'
p44
sg15
I170
sg16
S'chensiqi'
p45
sg18
S'\xe7\x94\xb7'
p46
sbsba(ilib.Lessons_model
lesson_Model
p47
(dp48
g5
S'\xe6\x95\xa3\xe6\x89\x93'
p49
sg7
I23
sg8
S'10'
p50
sg10
(ilib.Teachers_model
teacher_Model
p51
(dp52
g13
S'56'
p53
sg15
I210
sg16
S'\xe6\x9d\x8e\xe8\xbf\x9e\xe6\x9d\xb0'
p54
sg18
S'\xe7\x94\xb7'
p55
sbsba(ilib.Lessons_model
lesson_Model
p56
(dp57
g5
S'\xe6\x9f\x94\xe9\x81\x93'
p58
sg7
I17
sg8
S'10'
p59
sg10
(ilib.Teachers_model
teacher_Model
p60
(dp61
g13
S'55'
p62
sg15
I140
sg16
S'\xe6\x88\x90\xe9\xbe\x99'
p63
sg18
S'\xe7\x94\xb7'
p64
sbsba(ilib.Lessons_model
lesson_Model
p65
(dp66
g5
S'\xe5\x86\x9b\xe4\xba\x8b\xe8\xaf\x84\xe8\xae\xba'
p67
sg7
I39
sg8
S'10'
p68
sg10
(ilib.Teachers_model
teacher_Model
p69
(dp70
g13
S'33'
p71
sg15
I-50
sg16
S'\xe8\x91\xa3\xe5\x98\x89\xe8\x80\x80'
p72
sg18
S'\xe7\x94\xb7'
p73
sbsba(ilib.Lessons_model
lesson_Model
p74
(dp75
g5
S'\xe7\x94\xb5\xe5\xad\x90\xe7\x94\xb5\xe5\x99\xa8'
p76
sg7
I25
sg8
S'12'
p77
sg10
(ilib.Teachers_model
teacher_Model
p78
(dp79
g13
S'44'
p80
sg15
I0
sg16
S'\xe8\x8c\x83\xe8\xb7\x91\xe8\xb7\x91'
p81
sg18
S'\xe7\x94\xb7'
p82
sbsbasS'students'
p83
(lp84
(ilib.Students_model
student_Model
p85
(dp86
S'Account'
p87
S'chensiqi'
p88
sg16
S'chensiqi'
p89
sS'Lobj'
p90
(lp91
g3
ag20
ag29
ag3
ag20
ag29
asS'IQ'
p92
I50
sg13
S'32'
p93
sS'schedule'
p94
(dp95
g3
I100
sg20
I110
sg29
I0
ssS'num'
p96
(dp97
g3
I10
sg20
I10
sg29
I0
ssS'Password'
p98
S'csq122600'
p99
sba(ilib.Students_model
student_Model
p100
(dp101
g87
S'chensiqi11'
p102
sg16
S'\xe9\x99\x88\xe6\x80\x9d\xe9\xbd\x90'
p103
sg90
(lp104
sg92
I55
sg13
S'32'
p105
sg94
(dp106
sg96
(dp107
sg98
S'csq122600'
p108
sba(ilib.Students_model
student_Model
p109
(dp110
g87
S'chensiqi1'
p111
sg16
S'sdfdsfsd'
p112
sg90
(lp113
g38
ag29
ag20
ag3
ag20
ag29
asg92
I54
sg13
S'32'
p114
sg94
(dp115
g38
I0
sg3
I0
sg20
I0
sg29
I0
ssg96
(dp116
g38
I0
sg3
I0
sg20
I0
sg29
I0
ssg98
S'csq122600'
p117
sba(ilib.Students_model
student_Model
p118
(dp119
g87
S'chensiqi2'
p120
sg16
S'chensiqi2'
p121
sg90
(lp122
g3
ag20
ag29
ag38
ag47
ag56
ag65
asg92
I49
sg13
S'32'
p123
sg94
(dp124
g65
I0
sg38
I100
sg3
I100
sg47
I110
sg20
I100
sg56
I100
sg29
I100
ssg96
(dp125
g65
I0
sg38
I9
sg3
I8
sg47
I8
sg20
I8
sg56
I6
sg29
I8
ssg98
S'csq122600'
p126
sba(ilib.Students_model
student_Model
p127
(dp128
g87
S'chensiqi3'
p129
sg16
S'dsfsfd'
p130
sg90
(lp131
g3
ag20
ag29
ag38
asg92
I53
sg13
S'chensiqi3'
p132
sg94
(dp133
g38
I0
sg3
I110
sg20
I90
sg29
I100
ssg96
(dp134
g38
I0
sg3
I7
sg20
I10
sg29
I8
ssg98
S'csq122600'
p135
sba(ilib.Students_model
student_Model
p136
(dp137
g87
S'chensiqi555'
p138
sg16
S'MMM'
p139
sg90
(lp140
g3
ag20
ag29
ag38
ag47
ag56
ag65
asg92
I80
sg13
S'33'
p141
sg94
(dp142
g65
I100
sg38
I100
sg3
I100
sg47
I110
sg20
I100
sg56
I100
sg29
I100
ssg96
(dp143
g65
I12
sg38
I9
sg3
I7
sg47
I8
sg20
I8
sg56
I6
sg29
I5
ssg98
S'csq122600'
p144
sba(ilib.Students_model
student_Model
p145
(dp146
g87
S'dsfsdf'
p147
sg16
S'dsfs'
p148
sg90
(lp149
g3
ag20
ag29
ag38
ag47
ag56
ag65
asg92
I68
sg13
S'dsfs'
p150
sg94
(dp151
g65
I50
sg38
I110
sg3
I100
sg47
I100
sg20
I100
sg56
I80
sg29
I60
ssg96
(dp152
g65
I9
sg38
I7
sg3
I8
sg47
I7
sg20
I9
sg56
I9
sg29
I9
ssg98
S'sdfsdfs'
p153
sba(ilib.Students_model
student_Model
p154
(dp155
g87
S'dsfs'
p156
sg16
S'sdfsdf'
p157
sg90
(lp158
g3
ag20
ag29
ag38
ag47
ag56
asg92
I79
sg13
S'sdf'
p159
sg94
(dp160
g38
I110
sg3
I100
sg47
I100
sg20
I80
sg56
I90
sg29
I80
ssg96
(dp161
g38
I8
sg3
I6
sg47
I6
sg20
I9
sg56
I9
sg29
I9
ssg98
S'sdfs'
p162
sba(ilib.Students_model
student_Model
p163
(dp164
g87
S'chensiqi33'
p165
sg16
S'\xe6\x9d\x8e\xe5\x85\xad'
p166
sg90
(lp167
g3
ag20
ag29
ag38
asg92
I80
sg13
S'33'
p168
sg94
(dp169
g38
I0
sg3
I110
sg20
I0
sg29
I0
ssg96
(dp170
g38
I0
sg3
I8
sg20
I0
sg29
I0
ssg98
S'66666666'
p171
sbasS'teachers'
p172
(lp173
g11
ag24
ag33
ag42
ag60
ag51
ag69
ag78
as.