(dp0
S'lessons'
p1
(lp2
(ilib.Lessons_model
lesson_Model
p3
(dp4
S'Lname'
p5
S'\xe7\x94\x9f\xe7\x89\xa9\xe5\xad\xa6'
p6
sS'difficulty'
p7
I19
sS'Lcost'
p8
S'7'
p9
sS'Tobj'
p10
(ilib.Teachers_model
teacher_Model
p11
(dp12
S'Age'
p13
S'32'
p14
sS'_teacher_Model__Calary'
p15
I201
sS'Name'
p16
S'\xe9\x99\x88\xe8\xbe\x83\xe5\x88\x9a'
p17
sS'Sex'
p18
S'\xe7\x94\xb7'
p19
sbsba(ilib.Lessons_model
lesson_Model
p20
(dp21
g5
S'\xe5\x8c\x96\xe5\xad\xa6'
p22
sg7
I29
sg8
S'7'
p23
sg10
(ilib.Teachers_model
teacher_Model
p24
(dp25
g13
S'26'
p26
sg15
I53
sg16
S'DMM'
p27
sg18
S'\xe7\x94\xb7'
p28
sbsba(ilib.Lessons_model
lesson_Model
p29
(dp30
g5
S'\xe4\xba\x91\xe8\xae\xa1\xe7\xae\x97'
p31
sg7
I33
sg8
S'10'
p32
sg10
(ilib.Teachers_model
teacher_Model
p33
(dp34
g13
S'32'
p35
sg15
I110
sg16
S'\xe9\x99\x88\xe6\x80\x9d\xe9\xbd\x90'
p36
sg18
S'\xe7\x94\xb7'
p37
sbsba(ilib.Lessons_model
lesson_Model
p38
(dp39
g5
S'Python'
p40
sg7
I28
sg8
S'10'
p41
sg10
(ilib.Teachers_model
teacher_Model
p42
(dp43
g13
S'32'
p44
sg15
I170
sg16
S'chensiqi'
p45
sg18
S'\xe7\x94\xb7'
p46
sbsba(ilib.Lessons_model
lesson_Model
p47
(dp48
g5
S'\xe6\x95\xa3\xe6\x89\x93'
p49
sg7
I23
sg8
S'10'
p50
sg10
(ilib.Teachers_model
teacher_Model
p51
(dp52
g13
S'56'
p53
sg15
I210
sg16
S'\xe6\x9d\x8e\xe8\xbf\x9e\xe6\x9d\xb0'
p54
sg18
S'\xe7\x94\xb7'
p55
sbsba(ilib.Lessons_model
lesson_Model
p56
(dp57
g5
S'\xe6\x9f\x94\xe9\x81\x93'
p58
sg7
I17
sg8
S'10'
p59
sg10
(ilib.Teachers_model
teacher_Model
p60
(dp61
g13
S'55'
p62
sg15
I140
sg16
S'\xe6\x88\x90\xe9\xbe\x99'
p63
sg18
S'\xe7\x94\xb7'
p64
sbsba(ilib.Lessons_model
lesson_Model
p65
(dp66
g5
S'\xe5\x86\x9b\xe4\xba\x8b\xe8\xaf\x84\xe8\xae\xba'
p67
sg7
I39
sg8
S'10'
p68
sg10
(ilib.Teachers_model
teacher_Model
p69
(dp70
g13
S'33'
p71
sg15
I-50
sg16
S'\xe8\x91\xa3\xe5\x98\x89\xe8\x80\x80'
p72
sg18
S'\xe7\x94\xb7'
p73
sbsbasS'students'
p74
(lp75
(ilib.Students_model
student_Model
p76
(dp77
S'Account'
p78
S'chensiqi'
p79
sg16
S'chensiqi'
p80
sS'Lobj'
p81
(lp82
g3
ag20
ag29
ag3
ag20
ag29
asS'IQ'
p83
I50
sg13
S'32'
p84
sS'schedule'
p85
(dp86
g20
I0
sg3
I0
sg29
I0
ssS'num'
p87
(dp88
g20
I0
sg3
I0
sg29
I0
ssS'Password'
p89
S'csq122600'
p90
sba(ilib.Students_model
student_Model
p91
(dp92
g78
S'chensiqi11'
p93
sg16
S'\xe9\x99\x88\xe6\x80\x9d\xe9\xbd\x90'
p94
sg81
(lp95
sg83
I55
sg13
S'32'
p96
sg85
(dp97
sg87
(dp98
sg89
S'csq122600'
p99
sba(ilib.Students_model
student_Model
p100
(dp101
g78
S'chensiqi1'
p102
sg16
S'sdfdsfsd'
p103
sg81
(lp104
g38
ag29
ag20
ag3
ag20
ag29
asg83
I54
sg13
S'32'
p105
sg85
(dp106
g38
I0
sg20
I0
sg3
I0
sg29
I0
ssg87
(dp107
g38
I0
sg20
I0
sg3
I0
sg29
I0
ssg89
S'csq122600'
p108
sba(ilib.Students_model
student_Model
p109
(dp110
g78
S'chensiqi2'
p111
sg16
S'chensiqi2'
p112
sg81
(lp113
g3
ag20
ag29
ag38
ag47
ag56
ag65
asg83
I49
sg13
S'32'
p114
sg85
(dp115
g56
I100
sg47
I110
sg38
I100
sg29
I100
sg20
I100
sg65
I0
sg3
I100
ssg87
(dp116
g56
I6
sg47
I8
sg38
I9
sg29
I8
sg20
I8
sg65
I0
sg3
I8
ssg89
S'csq122600'
p117
sba(ilib.Students_model
student_Model
p118
(dp119
g78
S'chensiqi3'
p120
sg16
S'dsfsfd'
p121
sg81
(lp122
g3
ag20
ag29
ag38
asg83
I53
sg13
S'chensiqi3'
p123
sg85
(dp124
g38
I0
sg20
I90
sg3
I110
sg29
I100
ssg87
(dp125
g38
I0
sg20
I10
sg3
I7
sg29
I8
ssg89
S'csq122600'
p126
sba(ilib.Students_model
student_Model
p127
(dp128
g78
S'chensiqi555'
p129
sg16
S'MMM'
p130
sg81
(lp131
g3
ag20
ag29
ag38
ag47
ag56
ag65
asg83
I80
sg13
S'33'
p132
sg85
(dp133
g56
I100
sg47
I110
sg38
I100
sg29
I100
sg20
I100
sg65
I100
sg3
I100
ssg87
(dp134
g56
I6
sg47
I8
sg38
I9
sg29
I5
sg20
I8
sg65
I12
sg3
I7
ssg89
S'csq122600'
p135
sba(ilib.Students_model
student_Model
p136
(dp137
g78
S'dsfsdf'
p138
sg16
S'dsfs'
p139
sg81
(lp140
g3
ag20
ag29
ag38
ag47
ag56
ag65
asg83
I68
sg13
S'dsfs'
p141
sg85
(dp142
g56
I80
sg47
I100
sg38
I110
sg29
I60
sg20
I100
sg65
I50
sg3
I100
ssg87
(dp143
g56
I9
sg47
I7
sg38
I7
sg29
I9
sg20
I9
sg65
I9
sg3
I8
ssg89
S'sdfsdfs'
p144
sba(ilib.Students_model
student_Model
p145
(dp146
g78
S'dsfs'
p147
sg16
S'sdfsdf'
p148
sg81
(lp149
g3
ag20
ag29
ag38
ag47
ag56
asg83
I79
sg13
S'sdf'
p150
sg85
(dp151
g56
I90
sg47
I100
sg38
I110
sg29
I80
sg20
I80
sg3
I100
ssg87
(dp152
g56
I9
sg47
I6
sg38
I8
sg29
I9
sg20
I9
sg3
I6
ssg89
S'sdfs'
p153
sbasS'teachers'
p154
(lp155
g11
ag24
ag33
ag42
ag60
ag51
ag69
as.